Certificate:
    Data:
        Version: 3 (0x2)
        Serial Number: 18 (0x12)
    Signature Algorithm: sha256WithRSAEncryption
        Issuer: C=PT, ST=Coimbra, L=Coimbra, O=FCTUC, OU=DEI, CN=PRIVATE_CA/emailAddress=private_ca@student.dei.uc.pt
        Validity
            Not Before: Mar 21 18:01:56 2020 GMT
            Not After : Mar 21 18:01:56 2021 GMT
        Subject: C=PT, ST=Coimbra, L=Coimbra, O=FCTUC, OU=DEI, CN=roadwarrior/emailAddress=rw@hotmail.com
        Subject Public Key Info:
            Public Key Algorithm: rsaEncryption
                Public-Key: (2048 bit)
                Modulus:
                    00:c6:28:90:eb:d4:b5:f6:17:66:54:4a:f5:fa:20:
                    fd:00:0d:6c:eb:fa:15:99:c2:8c:d6:fb:49:5f:6a:
                    95:7f:c7:ab:73:fb:c3:0f:7a:3a:bc:59:7e:a4:b0:
                    c3:d6:c0:dc:e7:49:98:9a:a1:73:15:aa:77:8f:c2:
                    67:f2:3b:42:7f:7c:ef:90:6f:54:68:60:d6:5f:56:
                    a1:a3:2d:3f:76:6b:e7:e0:24:95:67:37:b1:81:94:
                    73:b9:ed:43:77:94:01:61:31:2b:90:6d:9c:ba:41:
                    7e:e1:b6:87:9c:4d:98:15:8f:50:40:a8:5f:99:70:
                    b1:68:42:d5:a6:ae:6d:05:66:ed:0d:18:25:4e:f4:
                    3c:ce:92:58:eb:73:4d:72:ba:02:79:5f:28:29:29:
                    9a:7f:c0:c1:0a:24:cc:a5:fb:61:bf:a2:00:6b:01:
                    4a:1a:06:2a:f9:4f:f7:1a:82:10:b9:6a:44:99:7b:
                    70:93:4c:b2:d0:19:fb:a6:05:43:99:14:8d:2e:68:
                    97:c5:f6:ff:f8:62:05:03:d8:f6:de:84:bd:bb:81:
                    84:a3:d7:bb:ff:87:3d:0c:5e:79:18:d9:53:16:1a:
                    23:fb:90:bd:5a:c8:ab:6f:5c:79:79:e7:16:10:c7:
                    5d:b8:08:31:10:eb:eb:e4:10:0b:ba:bd:a9:26:db:
                    08:97
                Exponent: 65537 (0x10001)
        X509v3 extensions:
            X509v3 Basic Constraints: 
                CA:FALSE
            X509v3 Key Usage: 
                Digital Signature, Non Repudiation, Key Encipherment
            Netscape Comment: 
                OpenSSL Generated Certificate
            X509v3 Subject Key Identifier: 
                DB:E9:E9:28:1A:95:19:76:AE:3B:A0:11:A1:DF:3D:B8:29:24:FC:BE
            X509v3 Authority Key Identifier: 
                DirName:/C=PT/ST=Coimbra/L=Coimbra/O=FCTUC/OU=DEI/CN=PRIVATE_CA/emailAddress=private_ca@student.dei.uc.pt
                serial:D1:69:C5:B3:85:0E:89:B3

            X509v3 Extended Key Usage: critical
                TLS Web Client Authentication, TLS Web Server Authentication, OCSP Signing
    Signature Algorithm: sha256WithRSAEncryption
         c3:28:40:f3:53:6e:9c:b3:5a:2a:87:9f:c4:27:98:ba:88:38:
         2b:b8:61:6c:30:49:61:00:d9:ac:de:ca:f6:a3:1c:73:bf:56:
         3d:32:61:24:75:be:b0:39:e2:0c:1c:16:c2:d8:e0:de:5b:66:
         19:9e:6e:1e:bf:d3:fd:6b:86:99:f7:81:fa:50:3f:13:69:98:
         62:24:0c:1f:f3:61:35:28:93:73:a6:98:e3:20:33:a8:4e:e3:
         ed:4b:0f:cb:43:59:cb:f6:30:a1:ee:2c:27:db:f0:bb:70:7e:
         03:c4:77:b3:fb:32:07:24:f8:f2:18:28:1d:f8:f2:a6:95:0a:
         2b:20:3d:58:b7:33:04:02:fa:e9:93:81:98:17:e9:b1:44:4c:
         38:30:e7:dc:3a:c8:53:d3:76:23:df:3a:6a:04:cf:63:0d:d7:
         66:1c:8c:5c:d1:8d:36:a7:91:ac:eb:fd:f2:6a:aa:3e:16:3a:
         67:b8:4a:53:b8:53:0e:ad:4c:ef:f1:f2:d8:51:a0:39:38:7c:
         be:fb:b0:8a:3d:72:55:7c:12:94:46:88:b9:08:43:c6:92:8b:
         87:77:c1:bb:a9:77:a9:e4:04:2b:f0:eb:ae:ed:89:f8:c9:ab:
         23:e6:8c:fb:db:50:75:6a:8f:b7:6b:c1:d6:38:ea:dd:d4:a4:
         26:67:b9:1f
-----BEGIN CERTIFICATE-----
MIIE3DCCA8SgAwIBAgIBEjANBgkqhkiG9w0BAQsFADCBkTELMAkGA1UEBhMCUFQx
EDAOBgNVBAgMB0NvaW1icmExEDAOBgNVBAcMB0NvaW1icmExDjAMBgNVBAoMBUZD
VFVDMQwwCgYDVQQLDANERUkxEzARBgNVBAMMClBSSVZBVEVfQ0ExKzApBgkqhkiG
9w0BCQEWHHByaXZhdGVfY2FAc3R1ZGVudC5kZWkudWMucHQwHhcNMjAwMzIxMTgw
MTU2WhcNMjEwMzIxMTgwMTU2WjCBhDELMAkGA1UEBhMCUFQxEDAOBgNVBAgMB0Nv
aW1icmExEDAOBgNVBAcMB0NvaW1icmExDjAMBgNVBAoMBUZDVFVDMQwwCgYDVQQL
DANERUkxFDASBgNVBAMMC3JvYWR3YXJyaW9yMR0wGwYJKoZIhvcNAQkBFg5yd0Bo
b3RtYWlsLmNvbTCCASIwDQYJKoZIhvcNAQEBBQADggEPADCCAQoCggEBAMYokOvU
tfYXZlRK9fog/QANbOv6FZnCjNb7SV9qlX/Hq3P7ww96OrxZfqSww9bA3OdJmJqh
cxWqd4/CZ/I7Qn9875BvVGhg1l9WoaMtP3Zr5+AklWc3sYGUc7ntQ3eUAWExK5Bt
nLpBfuG2h5xNmBWPUECoX5lwsWhC1aaubQVm7Q0YJU70PM6SWOtzTXK6AnlfKCkp
mn/AwQokzKX7Yb+iAGsBShoGKvlP9xqCELlqRJl7cJNMstAZ+6YFQ5kUjS5ol8X2
//hiBQPY9t6EvbuBhKPXu/+HPQxeeRjZUxYaI/uQvVrIq29ceXnnFhDHXbgIMRDr
6+QQC7q9qSbbCJcCAwEAAaOCAUgwggFEMAkGA1UdEwQCMAAwCwYDVR0PBAQDAgXg
MCwGCWCGSAGG+EIBDQQfFh1PcGVuU1NMIEdlbmVyYXRlZCBDZXJ0aWZpY2F0ZTAd
BgNVHQ4EFgQU2+npKBqVGXauO6ARod89uCkk/L4wgbAGA1UdIwSBqDCBpaGBl6SB
lDCBkTELMAkGA1UEBhMCUFQxEDAOBgNVBAgMB0NvaW1icmExEDAOBgNVBAcMB0Nv
aW1icmExDjAMBgNVBAoMBUZDVFVDMQwwCgYDVQQLDANERUkxEzARBgNVBAMMClBS
SVZBVEVfQ0ExKzApBgkqhkiG9w0BCQEWHHByaXZhdGVfY2FAc3R1ZGVudC5kZWku
dWMucHSCCQDRacWzhQ6JszAqBgNVHSUBAf8EIDAeBggrBgEFBQcDAgYIKwYBBQUH
AwEGCCsGAQUFBwMJMA0GCSqGSIb3DQEBCwUAA4IBAQDDKEDzU26cs1oqh5/EJ5i6
iDgruGFsMElhANms3sr2oxxzv1Y9MmEkdb6wOeIMHBbC2ODeW2YZnm4ev9P9a4aZ
94H6UD8TaZhiJAwf82E1KJNzppjjIDOoTuPtSw/LQ1nL9jCh7iwn2/C7cH4DxHez
+zIHJPjyGCgd+PKmlQorID1YtzMEAvrpk4GYF+mxREw4MOfcOshT03Yj3zpqBM9j
DddmHIxc0Y02p5Gs6/3yaqo+FjpnuEpTuFMOrUzv8fLYUaA5OHy++7CKPXJVfBKU
Roi5CEPGkouHd8G7qXep5AQr8Ouu7Yn4yasj5oz721B1ao+3a8HWOOrd1KQmZ7kf
-----END CERTIFICATE-----
