Certificate:
    Data:
        Version: 3 (0x2)
        Serial Number: 19 (0x13)
    Signature Algorithm: sha256WithRSAEncryption
        Issuer: C=PT, ST=Coimbra, L=Coimbra, O=FCTUC, OU=DEI, CN=PRIVATE_CA/emailAddress=private_ca@student.dei.uc.pt
        Validity
            Not Before: Mar 21 18:04:30 2020 GMT
            Not After : Mar 21 18:04:30 2021 GMT
        Subject: C=PT, ST=Coimbra, L=Coimbra, O=FCTUC, OU=DEI, CN=revwarrior/emailAddress=rvw@hotmail.com
        Subject Public Key Info:
            Public Key Algorithm: rsaEncryption
                Public-Key: (2048 bit)
                Modulus:
                    00:bc:82:08:95:b6:19:33:3f:60:1b:75:a5:41:f5:
                    7c:e1:7c:0f:73:f6:15:57:ea:bd:fe:0c:ae:ee:35:
                    a6:d4:47:1e:89:62:1c:be:0d:a1:73:be:74:e3:86:
                    7d:10:d1:71:99:4e:3e:7a:4a:b3:ff:1d:41:4a:b2:
                    b0:b4:31:09:c6:69:04:f2:35:12:01:b9:75:a0:8b:
                    bc:c7:3f:54:bf:80:41:0d:5e:1c:14:1f:0d:43:cd:
                    16:a1:b7:51:f4:18:77:9d:68:3e:a3:4a:0a:f6:df:
                    ed:9d:5e:a7:e3:65:5c:c3:7c:8e:78:1a:93:c4:0d:
                    32:74:a8:5c:57:15:a9:67:fa:84:91:d6:f7:27:f6:
                    cf:66:ee:00:5c:aa:94:56:4f:85:b6:11:f2:49:2e:
                    86:be:6d:46:13:8d:5a:34:ae:a9:61:96:b7:75:6c:
                    ed:03:4d:70:f5:f5:cd:17:1c:2c:16:1d:06:95:a2:
                    e8:bd:1c:db:9e:36:3e:c9:bf:25:16:7f:2f:5d:da:
                    49:45:5a:b3:a5:f7:28:31:e7:41:9a:7b:e3:74:b1:
                    d7:81:d8:5f:3e:74:ae:6e:39:84:af:8b:9c:dd:57:
                    ec:16:c2:78:27:39:51:d3:4d:7d:97:18:02:89:78:
                    01:c7:a3:01:6e:86:26:99:1c:d4:1d:f3:a2:3c:69:
                    88:57
                Exponent: 65537 (0x10001)
        X509v3 extensions:
            X509v3 Basic Constraints: 
                CA:FALSE
            X509v3 Key Usage: 
                Digital Signature, Non Repudiation, Key Encipherment
            Netscape Comment: 
                OpenSSL Generated Certificate
            X509v3 Subject Key Identifier: 
                45:DA:AF:0E:60:37:4D:B2:19:56:45:A8:F0:5D:0C:72:8A:DF:AF:0D
            X509v3 Authority Key Identifier: 
                DirName:/C=PT/ST=Coimbra/L=Coimbra/O=FCTUC/OU=DEI/CN=PRIVATE_CA/emailAddress=private_ca@student.dei.uc.pt
                serial:D1:69:C5:B3:85:0E:89:B3

            X509v3 Extended Key Usage: critical
                TLS Web Client Authentication, TLS Web Server Authentication, OCSP Signing
    Signature Algorithm: sha256WithRSAEncryption
         56:66:9f:a7:6c:97:ea:6c:3c:8c:f4:4b:62:50:53:69:e9:51:
         93:7d:d8:2f:25:45:85:ce:43:30:43:f4:7c:81:68:7f:7a:b6:
         f8:92:0e:39:e9:8c:60:08:09:7d:c4:2d:bc:c9:36:84:fb:c3:
         7c:e2:54:66:03:23:63:61:31:56:cb:55:0b:35:e3:18:b4:cd:
         fd:b2:40:ed:b3:f6:a3:84:b7:33:48:7f:cc:2b:74:72:98:9b:
         59:9a:f2:e8:61:1b:4f:21:e1:cc:70:bc:8a:de:7f:c8:39:21:
         c3:48:cd:45:14:c9:67:e7:d2:42:f8:35:bd:82:f6:7c:80:fb:
         a1:71:58:3f:85:58:af:72:92:9b:4d:72:81:21:7f:0f:d3:9c:
         9e:8c:85:c0:18:83:d5:4c:91:a8:f5:b4:d0:e2:0e:3e:cd:c6:
         de:6a:ed:3c:22:ac:b0:c5:09:ac:ce:c7:1b:a1:0d:e5:79:97:
         63:7c:70:46:8a:24:6f:25:bf:b9:2b:1e:69:5b:6e:5f:7c:6c:
         29:d0:da:4f:b7:18:be:7b:08:d8:1f:fc:6e:6d:e6:d7:72:6c:
         3a:8c:01:c6:4a:73:2c:d1:5c:05:7f:4b:ce:9e:6f:25:c6:66:
         23:1a:dc:e0:bf:61:d3:bf:d3:2b:d4:4e:4e:d5:df:08:85:53:
         c3:1e:46:95
-----BEGIN CERTIFICATE-----
MIIE3DCCA8SgAwIBAgIBEzANBgkqhkiG9w0BAQsFADCBkTELMAkGA1UEBhMCUFQx
EDAOBgNVBAgMB0NvaW1icmExEDAOBgNVBAcMB0NvaW1icmExDjAMBgNVBAoMBUZD
VFVDMQwwCgYDVQQLDANERUkxEzARBgNVBAMMClBSSVZBVEVfQ0ExKzApBgkqhkiG
9w0BCQEWHHByaXZhdGVfY2FAc3R1ZGVudC5kZWkudWMucHQwHhcNMjAwMzIxMTgw
NDMwWhcNMjEwMzIxMTgwNDMwWjCBhDELMAkGA1UEBhMCUFQxEDAOBgNVBAgMB0Nv
aW1icmExEDAOBgNVBAcMB0NvaW1icmExDjAMBgNVBAoMBUZDVFVDMQwwCgYDVQQL
DANERUkxEzARBgNVBAMMCnJldndhcnJpb3IxHjAcBgkqhkiG9w0BCQEWD3J2d0Bo
b3RtYWlsLmNvbTCCASIwDQYJKoZIhvcNAQEBBQADggEPADCCAQoCggEBALyCCJW2
GTM/YBt1pUH1fOF8D3P2FVfqvf4Mru41ptRHHoliHL4NoXO+dOOGfRDRcZlOPnpK
s/8dQUqysLQxCcZpBPI1EgG5daCLvMc/VL+AQQ1eHBQfDUPNFqG3UfQYd51oPqNK
Cvbf7Z1ep+NlXMN8jngak8QNMnSoXFcVqWf6hJHW9yf2z2buAFyqlFZPhbYR8kku
hr5tRhONWjSuqWGWt3Vs7QNNcPX1zRccLBYdBpWi6L0c2542Psm/JRZ/L13aSUVa
s6X3KDHnQZp743Sx14HYXz50rm45hK+LnN1X7BbCeCc5UdNNfZcYAol4AcejAW6G
Jpkc1B3zojxpiFcCAwEAAaOCAUgwggFEMAkGA1UdEwQCMAAwCwYDVR0PBAQDAgXg
MCwGCWCGSAGG+EIBDQQfFh1PcGVuU1NMIEdlbmVyYXRlZCBDZXJ0aWZpY2F0ZTAd
BgNVHQ4EFgQURdqvDmA3TbIZVkWo8F0Mcorfrw0wgbAGA1UdIwSBqDCBpaGBl6SB
lDCBkTELMAkGA1UEBhMCUFQxEDAOBgNVBAgMB0NvaW1icmExEDAOBgNVBAcMB0Nv
aW1icmExDjAMBgNVBAoMBUZDVFVDMQwwCgYDVQQLDANERUkxEzARBgNVBAMMClBS
SVZBVEVfQ0ExKzApBgkqhkiG9w0BCQEWHHByaXZhdGVfY2FAc3R1ZGVudC5kZWku
dWMucHSCCQDRacWzhQ6JszAqBgNVHSUBAf8EIDAeBggrBgEFBQcDAgYIKwYBBQUH
AwEGCCsGAQUFBwMJMA0GCSqGSIb3DQEBCwUAA4IBAQBWZp+nbJfqbDyM9EtiUFNp
6VGTfdgvJUWFzkMwQ/R8gWh/erb4kg456YxgCAl9xC28yTaE+8N84lRmAyNjYTFW
y1ULNeMYtM39skDts/ajhLczSH/MK3RymJtZmvLoYRtPIeHMcLyK3n/IOSHDSM1F
FMln59JC+DW9gvZ8gPuhcVg/hVivcpKbTXKBIX8P05yejIXAGIPVTJGo9bTQ4g4+
zcbeau08IqywxQmszscboQ3leZdjfHBGiiRvJb+5Kx5pW25ffGwp0NpPtxi+ewjY
H/xubebXcmw6jAHGSnMs0VwFf0vOnm8lxmYjGtzgv2HTv9Mr1E5O1d8IhVPDHkaV
-----END CERTIFICATE-----
